; Function Attrs: mustprogress uwtable
define hidden void @_ZN4lean2ir7mk_ctorERKNS_4nameEjjjjRKNS_6bufferINS_10object_refELm16EEE(ptr dead_on_unwind noalias writable writeonly sret(%"class.lean::object_ref") align 8 captures(none) %0, ptr noundef nonnull readonly align 8 captures(none) dereferenceable(8) %1, i32 noundef %2, i32 noundef %3, i32 noundef %4, i32 noundef %5, ptr noundef nonnull readonly align 8 captures(none) dereferenceable(152) %6) local_unnamed_addr #0 {
  %8 = load ptr, ptr %1, align 8, !tbaa !3
  %9 = ptrtoint ptr %8 to i64
  %10 = and i64 %9, 1
  %.not.i.i = icmp eq i64 %10, 0
  br i1 %.not.i.i, label %11, label %_ZNK4lean10object_ref10to_obj_argEv.exit

11:                                               ; preds = %7
  %.val.i.i.i = load i32, ptr %8, align 4, !tbaa !8
  %12 = icmp sgt i32 %.val.i.i.i, 0
  br i1 %12, label %13, label %15, !prof !11

13:                                               ; preds = %11
  %14 = add nuw nsw i32 %.val.i.i.i, 1
  store i32 %14, ptr %8, align 4, !tbaa !8
  br label %_ZNK4lean10object_ref10to_obj_argEv.exit

15:                                               ; preds = %11
  %.not.i.i.i = icmp eq i32 %.val.i.i.i, 0
  br i1 %.not.i.i.i, label %_ZNK4lean10object_ref10to_obj_argEv.exit, label %16

16:                                               ; preds = %15
  tail call void @lean_inc_ref_cold(ptr noundef nonnull %8)
  %.pre.i = load ptr, ptr %1, align 8, !tbaa !3
  br label %_ZNK4lean10object_ref10to_obj_argEv.exit

_ZNK4lean10object_ref10to_obj_argEv.exit:         ; preds = %7, %13, %15, %16
  %17 = phi ptr [ %8, %7 ], [ %8, %13 ], [ %8, %15 ], [ %.pre.i, %16 ]
  %18 = getelementptr inbounds nuw i8, ptr %6, i64 8
  %19 = load i64, ptr %18, align 8, !tbaa !13
  %20 = shl i64 %19, 3
  %21 = add i64 %20, 24
  %22 = tail call ptr @lean_alloc_object(i64 noundef %21)
  store i32 1, ptr %22, align 4, !tbaa !8
  %23 = getelementptr inbounds nuw i8, ptr %22, i64 4
  %24 = load i32, ptr %23, align 4
  %25 = and i32 %24, 65535
  %26 = or disjoint i32 %25, -167772160
  store i32 %26, ptr %23, align 4
  %27 = getelementptr inbounds nuw i8, ptr %22, i64 8
  store i64 %19, ptr %27, align 8, !tbaa !17
  %28 = getelementptr inbounds nuw i8, ptr %22, i64 16
  store i64 %19, ptr %28, align 8, !tbaa !17
  %29 = load ptr, ptr %6, align 8, !tbaa !18
  %30 = load i64, ptr %18, align 8, !tbaa !13
  %31 = getelementptr inbounds nuw %"class.lean::object_ref", ptr %29, i64 %30
  %.not15.i = icmp eq i64 %30, 0
  br i1 %.not15.i, label %_ZN4lean8to_arrayINS_6bufferINS_10object_refELm16EEEEEP11lean_objectRKT_.exit, label %.lr.ph.i

.lr.ph.i:                                         ; preds = %_ZNK4lean10object_ref10to_obj_argEv.exit
  %32 = getelementptr inbounds nuw i8, ptr %22, i64 24
  br label %33

33:                                               ; preds = %_ZN4lean3incEP11lean_object.exit.i, %.lr.ph.i
  %.017.i = phi i64 [ 0, %.lr.ph.i ], [ %45, %_ZN4lean3incEP11lean_object.exit.i ]
  %.01416.i = phi ptr [ %29, %.lr.ph.i ], [ %46, %_ZN4lean3incEP11lean_object.exit.i ]
  %34 = load ptr, ptr %.01416.i, align 8, !tbaa !3
  %35 = ptrtoint ptr %34 to i64
  %36 = and i64 %35, 1
  %.not.i.i5 = icmp eq i64 %36, 0
  br i1 %.not.i.i5, label %37, label %_ZN4lean3incEP11lean_object.exit.i

37:                                               ; preds = %33
  %.val.i.i.i6 = load i32, ptr %34, align 4, !tbaa !8
  %38 = icmp sgt i32 %.val.i.i.i6, 0
  br i1 %38, label %39, label %41, !prof !11

39:                                               ; preds = %37
  %40 = add nuw nsw i32 %.val.i.i.i6, 1
  store i32 %40, ptr %34, align 4, !tbaa !8
  br label %_ZN4lean3incEP11lean_object.exit.i

41:                                               ; preds = %37
  %.not.i.i.i7 = icmp eq i32 %.val.i.i.i6, 0
  br i1 %.not.i.i.i7, label %_ZN4lean3incEP11lean_object.exit.i, label %42

42:                                               ; preds = %41
  tail call void @lean_inc_ref_cold(ptr noundef nonnull %34)
  %.pre.i8 = load ptr, ptr %.01416.i, align 8, !tbaa !3
  br label %_ZN4lean3incEP11lean_object.exit.i

_ZN4lean3incEP11lean_object.exit.i:               ; preds = %42, %41, %39, %33
  %43 = phi ptr [ %34, %33 ], [ %34, %39 ], [ %34, %41 ], [ %.pre.i8, %42 ]
  %44 = getelementptr inbounds nuw [0 x ptr], ptr %32, i64 0, i64 %.017.i
  store ptr %43, ptr %44, align 8, !tbaa !12
  %45 = add nuw nsw i64 %.017.i, 1
  %46 = getelementptr inbounds nuw i8, ptr %.01416.i, i64 8
  %.not.i = icmp eq ptr %46, %31
  br i1 %.not.i, label %_ZN4lean8to_arrayINS_6bufferINS_10object_refELm16EEEEEP11lean_objectRKT_.exit, label %33

_ZN4lean8to_arrayINS_6bufferINS_10object_refELm16EEEEEP11lean_objectRKT_.exit: ; preds = %_ZN4lean3incEP11lean_object.exit.i, %_ZNK4lean10object_ref10to_obj_argEv.exit
  %47 = zext i32 %5 to i64
  %48 = shl nuw nsw i64 %47, 1
  %49 = or disjoint i64 %48, 1
  %50 = inttoptr i64 %49 to ptr
  %51 = zext i32 %4 to i64
  %52 = shl nuw nsw i64 %51, 1
  %53 = or disjoint i64 %52, 1
  %54 = inttoptr i64 %53 to ptr
  %55 = zext i32 %3 to i64
  %56 = shl nuw nsw i64 %55, 1
  %57 = or disjoint i64 %56, 1
  %58 = inttoptr i64 %57 to ptr
  %59 = zext i32 %2 to i64
  %60 = shl nuw nsw i64 %59, 1
  %61 = or disjoint i64 %60, 1
  %62 = inttoptr i64 %61 to ptr
  %63 = tail call ptr @lean_ir_mk_ctor_expr(ptr noundef %17, ptr noundef nonnull %62, ptr noundef nonnull %58, ptr noundef nonnull %54, ptr noundef nonnull %50, ptr noundef nonnull %22)
  store ptr %63, ptr %0, align 8, !tbaa !3
  ret void
}